Certificate:
    Data:
        Version: 3 (0x2)
        Serial Number: 538050575 (0x2012000f)
    Signature Algorithm: sha1WithRSAEncryption
        Issuer: C=CH, ST=Z\xC3\xBCrich, L=Z\xC3\xBCrich, O=Wolframe Project Team, OU=Wolframe Certificate Authority, CN=Maguay Network CA/emailAddress=contact@wolframe.net
        Validity
            Not Before: Nov 19 21:42:49 2012 GMT
            Not After : Nov 19 21:42:49 2013 GMT
        Subject: C=CH, ST=-, L=Z\xC3\xBCrich, O=Wolframe Project Team, OU=Maguay Configurator Project, CN=Andreas Baumann/emailAddress=abaumann@yahoo.com
        Subject Public Key Info:
            Public Key Algorithm: rsaEncryption
                Public-Key: (1024 bit)
                Modulus:
                    00:b6:a3:6b:3d:d7:c4:ed:1d:8a:9a:64:58:ef:9d:
                    b0:3a:17:9e:4f:60:75:f6:19:3e:5c:4e:59:ce:35:
                    0d:55:c2:af:41:fa:e8:8a:ea:db:cb:32:3c:48:9b:
                    f3:33:5a:36:92:59:d3:e5:c6:9e:4d:c8:fe:cc:11:
                    4c:2a:c3:22:02:bc:89:ec:9a:64:83:a1:0a:cf:1c:
                    15:01:f2:20:71:b1:7d:f1:26:0c:91:2c:df:cd:b5:
                    ed:bc:b0:82:8f:20:c7:c2:fb:c0:d1:63:40:5f:9d:
                    ec:88:db:33:2f:dd:cc:67:80:49:02:68:e7:ab:21:
                    c8:2c:b7:eb:65:56:48:4f:5d
                Exponent: 65537 (0x10001)
        X509v3 extensions:
            X509v3 Basic Constraints: 
                CA:FALSE
            Netscape Comment: 
                OpenSSL Generated Certificate
            X509v3 Subject Key Identifier: 
                39:75:C6:82:93:A3:59:00:5C:74:C8:F7:21:48:B3:2B:5D:D5:3C:AF
            X509v3 Authority Key Identifier: 
                keyid:1B:0E:E7:8E:46:88:88:59:E4:AE:1D:3E:3A:1E:4A:49:4B:87:C9:54

    Signature Algorithm: sha1WithRSAEncryption
         65:5b:38:94:ea:2c:65:f8:7d:21:b9:bd:87:36:84:a4:f4:04:
         76:cb:ed:c9:2a:ba:ee:f2:22:4c:bf:00:f8:1b:7f:80:10:5f:
         fc:dc:6d:be:38:11:be:07:f8:32:ad:bc:06:f7:71:00:52:85:
         c6:87:59:64:6f:ad:36:51:cf:d8:df:dd:21:39:00:71:96:b6:
         72:26:d0:2e:c8:cb:f9:6f:a4:03:65:c6:bf:e7:8e:90:81:b4:
         3b:89:20:c7:6e:bb:98:ce:01:62:b2:58:a0:54:37:9c:42:50:
         d3:75:ef:46:d5:3c:4b:bb:a5:71:a1:39:7b:1e:f0:a8:3f:b5:
         44:1f:d8:3f:c6:fe:b6:20:c6:bf:a9:bf:00:3e:21:ef:38:0c:
         35:7a:ad:5e:67:91:7b:73:61:fe:61:ef:e2:95:f8:51:e8:6c:
         6b:eb:9a:0f:31:db:8e:21:f2:3d:ab:d1:a3:0f:ff:6c:02:0d:
         1b:89:d8:8e:c9:15:32:94:39:02:fd:79:ab:53:91:18:0a:dd:
         46:c3:21:3d:49:34:99:8e:0c:16:60:88:78:e7:7f:0c:61:24:
         a3:e8:38:c3:52:76:fa:9e:3a:bb:7a:51:12:43:fe:d0:51:8d:
         14:77:da:69:26:c5:34:fb:b3:4d:7b:ee:26:59:0c:0e:15:ee:
         83:be:d7:2a
-----BEGIN CERTIFICATE-----
MIID4DCCAsigAwIBAgIEIBIADzANBgkqhkiG9w0BAQUFADCBuzELMAkGA1UEBhMC
Q0gxEDAOBgNVBAgUB1rDvHJpY2gxEDAOBgNVBAcUB1rDvHJpY2gxHjAcBgNVBAoT
FVdvbGZyYW1lIFByb2plY3QgVGVhbTEnMCUGA1UECxMeV29sZnJhbWUgQ2VydGlm
aWNhdGUgQXV0aG9yaXR5MRowGAYDVQQDExFNYWd1YXkgTmV0d29yayBDQTEjMCEG
CSqGSIb3DQEJARYUY29udGFjdEB3b2xmcmFtZS5uZXQwHhcNMTIxMTE5MjE0MjQ5
WhcNMTMxMTE5MjE0MjQ5WjCBrjELMAkGA1UEBhMCQ0gxCjAIBgNVBAgTAS0xEDAO
BgNVBAcUB1rDvHJpY2gxHjAcBgNVBAoTFVdvbGZyYW1lIFByb2plY3QgVGVhbTEk
MCIGA1UECxMbTWFndWF5IENvbmZpZ3VyYXRvciBQcm9qZWN0MRgwFgYDVQQDEw9B
bmRyZWFzIEJhdW1hbm4xITAfBgkqhkiG9w0BCQEWEmFiYXVtYW5uQHlhaG9vLmNv
bTCBnzANBgkqhkiG9w0BAQEFAAOBjQAwgYkCgYEAtqNrPdfE7R2KmmRY752wOhee
T2B19hk+XE5ZzjUNVcKvQfroiurbyzI8SJvzM1o2klnT5caeTcj+zBFMKsMiAryJ
7Jpkg6EKzxwVAfIgcbF98SYMkSzfzbXtvLCCjyDHwvvA0WNAX53siNszL93MZ4BJ
AmjnqyHILLfrZVZIT10CAwEAAaN7MHkwCQYDVR0TBAIwADAsBglghkgBhvhCAQ0E
HxYdT3BlblNTTCBHZW5lcmF0ZWQgQ2VydGlmaWNhdGUwHQYDVR0OBBYEFDl1xoKT
o1kAXHTI9yFIsytd1TyvMB8GA1UdIwQYMBaAFBsO545GiIhZ5K4dPjoeSklLh8lU
MA0GCSqGSIb3DQEBBQUAA4IBAQBlWziU6ixl+H0hub2HNoSk9AR2y+3JKrru8iJM
vwD4G3+AEF/83G2+OBG+B/gyrbwG93EAUoXGh1lkb602Uc/Y390hOQBxlrZyJtAu
yMv5b6QDZca/546QgbQ7iSDHbruYzgFisligVDecQlDTde9G1TxLu6VxoTl7HvCo
P7VEH9g/xv62IMa/qb8APiHvOAw1eq1eZ5F7c2H+Ye/ilfhR6Gxr65oPMduOIfI9
q9GjD/9sAg0bidiOyRUylDkC/XmrU5EYCt1GwyE9STSZjgwWYIh4538MYSSj6DjD
Unb6njq7elESQ/7QUY0Ud9ppJsU0+7NNe+4mWQwOFe6Dvtcq
-----END CERTIFICATE-----
-----BEGIN PRIVATE KEY-----
MIICeAIBADANBgkqhkiG9w0BAQEFAASCAmIwggJeAgEAAoGBALajaz3XxO0dippk
WO+dsDoXnk9gdfYZPlxOWc41DVXCr0H66Irq28syPEib8zNaNpJZ0+XGnk3I/swR
TCrDIgK8ieyaZIOhCs8cFQHyIHGxffEmDJEs38217bywgo8gx8L7wNFjQF+d7Ijb
My/dzGeASQJo56shyCy362VWSE9dAgMBAAECgYEAiLH5Qxkqd/ojUfkHI5iXXHNu
9qQQxfgQ14+A4biNWYHUIIMF52tuxD++JO4r8WR08cavtQuaUke8hMnxgxP3cGXh
FFKJjDGamm7UtP58Ybgb0JLad4JMz4+sNOlB9zlht4f7FqKXJMRrvBAY0JOJnddL
GKfIdnJi/tm90Ufe20ECQQDsuLe67qVvceuc9Cc9Iqjl7Z4nfrg/5G2Dl7VWdcX5
E/ap4aCWGJuGmUltnfD4xrgChiN6tT2Cz3TZVvVF3rjNAkEAxYMmNZdZf5eFZQxI
HkoB86SyImCjU8OvFdtbYEw8jpytm3O8yeOtISkV7/tWXjvbe7CIBKNov0Z0ciEq
EAEw0QJBAIoBOmPJgzsQgBrVoBadIThCqkQ+NS5SfqIMDNTl/k+ymsf5WQSIPgtf
TBaS0IxIVbhq+T4tcTnUtjuK3Z0pNjUCQBewJwD+ael3jrQTyQJ49cr20bZ1yKDf
Mzx31nmyKwEfoWKnetjryXPUraDej/k1TJmFDosf3gwysvyNJbJNskECQQDhv3+S
jouoyLYlVxjmLv1pe2caQgtrFWW0MpLk05rUMU1iXQWrQxif0fPOoy5TmRtonRMY
+JedEMr87T8caH1I
-----END PRIVATE KEY-----
